target datalayout = "e-m:e-p270:32:32-p271:32:32-p272:64:64-i64:64-i128:128-f80:128-n8:16:32:64-S128"
target triple = "x86_64-pc-linux-gnu"

%struct.FunctionCallInfoBaseData = type { ptr, ptr, ptr, i32, i8, i16, [0 x %struct.NullableDatum] }
%struct.NullableDatum = type { i64, i8 }

; Function Attrs: inlinehint nounwind uwtable
define internal i64 @Int64GetDatum(i64 noundef %0) #2 {
  %2 = alloca i64, align 8
  store i64 %0, ptr %2, align 8
  %3 = load i64, ptr %2, align 8
  ret i64 %3
}

; Function Attrs: inlinehint nounwind uwtable
define internal i64 @TimestampTzGetDatum(i64 noundef %0) #2 {
  %2 = alloca i64, align 8
  store i64 %0, ptr %2, align 8
  %3 = load i64, ptr %2, align 8
  %4 = call i64 @Int64GetDatum(i64 noundef %3)
  ret i64 %4
}

; Function Attrs: nounwind uwtable
define dso_local i64 @pg_stat_get_snapshot_timestamp(ptr noundef %0) #0 {
  %2 = alloca i64, align 8
  %3 = alloca ptr, align 8
  %4 = alloca i8, align 1
  %5 = alloca i64, align 8
  %6 = alloca i32, align 4
  store ptr %0, ptr %3, align 8
  call void @llvm.lifetime.start.p0(i64 1, ptr %4) #10
  call void @llvm.lifetime.start.p0(i64 8, ptr %5) #10
  %7 = call i64 @pgstat_get_stat_snapshot_timestamp(ptr noundef %4)
  store i64 %7, ptr %5, align 8
  %8 = load i8, ptr %4, align 1, !range !8, !noundef !9
  %9 = trunc i8 %8 to i1
  br i1 %9, label %16, label %10

10:                                               ; preds = %1
  br label %11

11:                                               ; preds = %10
  %12 = load ptr, ptr %3, align 8
  %13 = getelementptr inbounds nuw %struct.FunctionCallInfoBaseData, ptr %12, i32 0, i32 4
  store i8 1, ptr %13, align 4
  store i64 0, ptr %2, align 8
  store i32 1, ptr %6, align 4
  br label %19

14:                                               ; No predecessors!
  br label %15

15:                                               ; preds = %14
  br label %16

16:                                               ; preds = %15, %1
  %17 = load i64, ptr %5, align 8
  %18 = call i64 @TimestampTzGetDatum(i64 noundef %17)
  store i64 %18, ptr %2, align 8
  store i32 1, ptr %6, align 4
  br label %19

19:                                               ; preds = %16, %11
  call void @llvm.lifetime.end.p0(i64 8, ptr %5) #10
  call void @llvm.lifetime.end.p0(i64 1, ptr %4) #10
  %20 = load i64, ptr %2, align 8
  ret i64 %20
}