; Function Attrs: nounwind uwtable
define dso_local i64 @pg_stat_get_snapshot_timestamp(ptr noundef writeonly captures(none) %0) local_unnamed_addr #0 {
  %2 = alloca i8, align 1
  call void @llvm.lifetime.start.p0(i64 1, ptr nonnull %2) #9
  %3 = call i64 @pgstat_get_stat_snapshot_timestamp(ptr noundef nonnull %2) #9
  %4 = load i8, ptr %2, align 1, !range !7, !noundef !8
  %5 = trunc nuw i8 %4 to i1
  br i1 %5, label %8, label %6

6:                                                ; preds = %1
  %7 = getelementptr inbounds nuw i8, ptr %0, i64 28
  store i8 1, ptr %7, align 4
  br label %8

8:                                                ; preds = %1, %6
  %.0 = phi i64 [ 0, %6 ], [ %3, %1 ]
  call void @llvm.lifetime.end.p0(i64 1, ptr nonnull %2) #9
  ret i64 %.0
}